; Function Attrs: mustprogress nofree norecurse nosync nounwind memory(read, argmem: readwrite, inaccessiblemem: none) uwtable
define noundef i32 @_ZN6google8protobuf8internal24UTF8SpnStructurallyValidENS0_11StringPieceE(ptr %0, i64 %1) local_unnamed_addr #3 {
  %3 = alloca i32, align 4
  %.b1 = load i1, ptr @_ZN6google8protobuf8internal12_GLOBAL__N_119module_initialized_E, align 1
  %4 = trunc i64 %1 to i32
  br i1 %.b1, label %5, label %57

5:                                                ; preds = %2
  call void @llvm.lifetime.start.p0(i64 4, ptr nonnull %3)
  %6 = icmp eq i32 %4, 0
  br i1 %6, label %_ZN6google8protobuf8internal24UTF8GenericScanFastAsciiEPKNS1_19UTF8StateMachineObjEPKciPi.exit, label %7

7:                                                ; preds = %5
  %sext = shl i64 %1, 32
  %8 = ashr exact i64 %sext, 32
  %9 = getelementptr inbounds i8, ptr %0, i64 %8
  %10 = icmp slt i32 %4, 7
  %11 = getelementptr inbounds i8, ptr %9, i64 -7
  %12 = select i1 %10, ptr %0, ptr %11
  %13 = ptrtoint ptr %0 to i64
  br label %14

14:                                               ; preds = %.critedge4.i, %7
  %.041.i = phi ptr [ %0, %7 ], [ %51, %.critedge4.i ]
  %15 = ptrtoint ptr %.041.i to i64
  %16 = and i64 %15, 7
  %.not50.i = icmp ne i64 %16, 0
  %17 = icmp ult ptr %.041.i, %9
  %or.cond51.i = select i1 %.not50.i, i1 %17, i1 false
  br i1 %or.cond51.i, label %.lr.ph.i, label %.critedge.i

.lr.ph.i:                                         ; preds = %14, %20
  %.152.i = phi ptr [ %21, %20 ], [ %.041.i, %14 ]
  %18 = load i8, ptr %.152.i, align 1
  %19 = icmp sgt i8 %18, -1
  br i1 %19, label %20, label %.critedge2.i

20:                                               ; preds = %.lr.ph.i
  %21 = getelementptr inbounds i8, ptr %.152.i, i64 1
  %22 = ptrtoint ptr %21 to i64
  %23 = and i64 %22, 7
  %.not.i = icmp ne i64 %23, 0
  %24 = icmp ult ptr %21, %9
  %or.cond.i = select i1 %.not.i, i1 %24, i1 false
  br i1 %or.cond.i, label %.lr.ph.i, label %.critedge.i, !llvm.loop !10

.critedge.i:                                      ; preds = %20, %14
  %.1.lcssa.i = phi ptr [ %.041.i, %14 ], [ %21, %20 ]
  %.lcssa.i = phi i64 [ %16, %14 ], [ %23, %20 ]
  %25 = icmp eq i64 %.lcssa.i, 0
  %26 = icmp ult ptr %.1.lcssa.i, %12
  %or.cond64.i = select i1 %25, i1 %26, i1 false
  br i1 %or.cond64.i, label %.lr.ph55.i, label %.critedge2.i

.lr.ph55.i:                                       ; preds = %.critedge.i, %33
  %.254.i = phi ptr [ %34, %33 ], [ %.1.lcssa.i, %.critedge.i ]
  %27 = load i32, ptr %.254.i, align 4
  %28 = getelementptr inbounds i8, ptr %.254.i, i64 4
  %29 = load i32, ptr %28, align 4
  %30 = or i32 %29, %27
  %31 = and i32 %30, -2139062144
  %32 = icmp eq i32 %31, 0
  br i1 %32, label %33, label %.critedge2.i

33:                                               ; preds = %.lr.ph55.i
  %34 = getelementptr inbounds i8, ptr %.254.i, i64 8
  %35 = icmp ult ptr %34, %12
  br i1 %35, label %.lr.ph55.i, label %.critedge2.i, !llvm.loop !11

.critedge2.i:                                     ; preds = %.lr.ph.i, %33, %.lr.ph55.i, %.critedge.i
  %.3.i = phi ptr [ %.1.lcssa.i, %.critedge.i ], [ %.254.i, %.lr.ph55.i ], [ %34, %33 ], [ %.152.i, %.lr.ph.i ]
  %36 = icmp ult ptr %.3.i, %9
  br i1 %36, label %.lr.ph60.i, label %.critedge4.i

.lr.ph60.i:                                       ; preds = %.critedge2.i, %39
  %.459.i = phi ptr [ %40, %39 ], [ %.3.i, %.critedge2.i ]
  %37 = load i8, ptr %.459.i, align 1
  %38 = icmp sgt i8 %37, -1
  br i1 %38, label %39, label %.critedge4.i

39:                                               ; preds = %.lr.ph60.i
  %40 = getelementptr inbounds i8, ptr %.459.i, i64 1
  %41 = icmp ult ptr %40, %9
  br i1 %41, label %.lr.ph60.i, label %.critedge4.i, !llvm.loop !12

.critedge4.i:                                     ; preds = %39, %.lr.ph60.i, %.critedge2.i
  %.4.lcssa.i = phi ptr [ %.3.i, %.critedge2.i ], [ %.459.i, %.lr.ph60.i ], [ %40, %39 ]
  %42 = ptrtoint ptr %.4.lcssa.i to i64
  %43 = sub i64 %42, %13
  %44 = trunc i64 %43 to i32
  %sext.i = shl i64 %43, 32
  %45 = ashr exact i64 %sext.i, 32
  %46 = getelementptr inbounds i8, ptr %0, i64 %45
  %47 = sub nsw i32 %4, %44
  %48 = call noundef i32 @_ZN6google8protobuf8internal15UTF8GenericScanEPKNS1_19UTF8StateMachineObjEPKciPi(ptr noundef nonnull readonly @_ZN6google8protobuf8internalL27utf8acceptnonsurrogates_objE, ptr noundef %46, i32 noundef %47, ptr noundef nonnull %3)
  %49 = load i32, ptr %3, align 4
  %50 = sext i32 %49 to i64
  %51 = getelementptr inbounds i8, ptr %.4.lcssa.i, i64 %50
  %52 = icmp eq i32 %48, 253
  br i1 %52, label %14, label %53, !llvm.loop !13

53:                                               ; preds = %.critedge4.i
  %54 = ptrtoint ptr %51 to i64
  %55 = sub i64 %54, %13
  %56 = trunc i64 %55 to i32
  br label %_ZN6google8protobuf8internal24UTF8GenericScanFastAsciiEPKNS1_19UTF8StateMachineObjEPKciPi.exit

_ZN6google8protobuf8internal24UTF8GenericScanFastAsciiEPKNS1_19UTF8StateMachineObjEPKciPi.exit: ; preds = %5, %53
  %.03 = phi i32 [ 0, %5 ], [ %56, %53 ]
  call void @llvm.lifetime.end.p0(i64 4, ptr nonnull %3)
  br label %57

57:                                               ; preds = %2, %_ZN6google8protobuf8internal24UTF8GenericScanFastAsciiEPKNS1_19UTF8StateMachineObjEPKciPi.exit
  %.0 = phi i32 [ %.03, %_ZN6google8protobuf8internal24UTF8GenericScanFastAsciiEPKNS1_19UTF8StateMachineObjEPKciPi.exit ], [ %4, %2 ]
  ret i32 %.0
}